target datalayout = "e-m:e-p270:32:32-p271:32:32-p272:64:64-i64:64-i128:128-f80:128-n8:16:32:64-S128"
target triple = "x86_64-pc-linux-gnu"

%struct.JNINativeInterface_ = type { ptr, ptr, ptr, ptr, ptr, ptr, ptr, ptr, ptr, ptr, ptr, ptr, ptr, ptr, ptr, ptr, ptr, ptr, ptr, ptr, ptr, ptr, ptr, ptr, ptr, ptr, ptr, ptr, ptr, ptr, ptr, ptr, ptr, ptr, ptr, ptr, ptr, ptr, ptr, ptr, ptr, ptr, ptr, ptr, ptr, ptr, ptr, ptr, ptr, ptr, ptr, ptr, ptr, ptr, ptr, ptr, ptr, ptr, ptr, ptr, ptr, ptr, ptr, ptr, ptr, ptr, ptr, ptr, ptr, ptr, ptr, ptr, ptr, ptr, ptr, ptr, ptr, ptr, ptr, ptr, ptr, ptr, ptr, ptr, ptr, ptr, ptr, ptr, ptr, ptr, ptr, ptr, ptr, ptr, ptr, ptr, ptr, ptr, ptr, ptr, ptr, ptr, ptr, ptr, ptr, ptr, ptr, ptr, ptr, ptr, ptr, ptr, ptr, ptr, ptr, ptr, ptr, ptr, ptr, ptr, ptr, ptr, ptr, ptr, ptr, ptr, ptr, ptr, ptr, ptr, ptr, ptr, ptr, ptr, ptr, ptr, ptr, ptr, ptr, ptr, ptr, ptr, ptr, ptr, ptr, ptr, ptr, ptr, ptr, ptr, ptr, ptr, ptr, ptr, ptr, ptr, ptr, ptr, ptr, ptr, ptr, ptr, ptr, ptr, ptr, ptr, ptr, ptr, ptr, ptr, ptr, ptr, ptr, ptr, ptr, ptr, ptr, ptr, ptr, ptr, ptr, ptr, ptr, ptr, ptr, ptr, ptr, ptr, ptr, ptr, ptr, ptr, ptr, ptr, ptr, ptr, ptr, ptr, ptr, ptr, ptr, ptr, ptr, ptr, ptr, ptr, ptr, ptr, ptr, ptr, ptr, ptr, ptr, ptr, ptr, ptr, ptr, ptr, ptr, ptr, ptr, ptr, ptr, ptr, ptr, ptr, ptr, ptr, ptr, ptr, ptr, ptr, ptr, ptr, ptr }
%struct.CK_DATE = type { [4 x i8], [2 x i8], [2 x i8] }

@.str = private unnamed_addr constant [36 x i8] c"sun/security/pkcs11/wrapper/CK_DATE\00", align 1
@.str.1 = private unnamed_addr constant [7 x i8] c"<init>\00", align 1
@.str.2 = private unnamed_addr constant [10 x i8] c"([C[C[C)V\00", align 1

; Function Attrs: nounwind uwtable
define hidden ptr @ckDatePtrToJDateObject(ptr noundef %0, ptr noundef %1) #0 {
  %3 = alloca ptr, align 8
  %4 = alloca ptr, align 8
  %5 = alloca ptr, align 8
  %6 = alloca ptr, align 8
  %7 = alloca ptr, align 8
  %8 = alloca ptr, align 8
  %9 = alloca ptr, align 8
  %10 = alloca ptr, align 8
  %11 = alloca ptr, align 8
  store ptr %0, ptr %4, align 8
  store ptr %1, ptr %5, align 8
  %12 = load ptr, ptr %4, align 8
  %13 = load ptr, ptr %12, align 8
  %14 = getelementptr inbounds %struct.JNINativeInterface_, ptr %13, i32 0, i32 6
  %15 = load ptr, ptr %14, align 8
  %16 = load ptr, ptr %4, align 8
  %17 = call ptr %15(ptr noundef %16, ptr noundef @.str)
  store ptr %17, ptr %6, align 8
  %18 = load ptr, ptr %6, align 8
  %19 = icmp eq ptr %18, null
  br i1 %19, label %20, label %21

20:                                               ; preds = %2
  store ptr null, ptr %3, align 8
  br label %100

21:                                               ; preds = %2
  %22 = load ptr, ptr %4, align 8
  %23 = load ptr, ptr %22, align 8
  %24 = getelementptr inbounds %struct.JNINativeInterface_, ptr %23, i32 0, i32 33
  %25 = load ptr, ptr %24, align 8
  %26 = load ptr, ptr %4, align 8
  %27 = load ptr, ptr %6, align 8
  %28 = call ptr %25(ptr noundef %26, ptr noundef %27, ptr noundef @.str.1, ptr noundef @.str.2)
  store ptr %28, ptr %7, align 8
  %29 = load ptr, ptr %7, align 8
  %30 = icmp eq ptr %29, null
  br i1 %30, label %31, label %32

31:                                               ; preds = %21
  store ptr null, ptr %3, align 8
  br label %100

32:                                               ; preds = %21
  %33 = load ptr, ptr %4, align 8
  %34 = load ptr, ptr %5, align 8
  %35 = getelementptr inbounds %struct.CK_DATE, ptr %34, i32 0, i32 0
  %36 = getelementptr inbounds [4 x i8], ptr %35, i64 0, i64 0
  %37 = call ptr @ckCharArrayToJCharArray(ptr noundef %33, ptr noundef %36, i64 noundef 4)
  store ptr %37, ptr %9, align 8
  %38 = load ptr, ptr %9, align 8
  %39 = icmp eq ptr %38, null
  br i1 %39, label %40, label %41

40:                                               ; preds = %32
  store ptr null, ptr %3, align 8
  br label %100

41:                                               ; preds = %32
  %42 = load ptr, ptr %4, align 8
  %43 = load ptr, ptr %5, align 8
  %44 = getelementptr inbounds %struct.CK_DATE, ptr %43, i32 0, i32 1
  %45 = getelementptr inbounds [2 x i8], ptr %44, i64 0, i64 0
  %46 = call ptr @ckCharArrayToJCharArray(ptr noundef %42, ptr noundef %45, i64 noundef 2)
  store ptr %46, ptr %10, align 8
  %47 = load ptr, ptr %10, align 8
  %48 = icmp eq ptr %47, null
  br i1 %48, label %49, label %50

49:                                               ; preds = %41
  store ptr null, ptr %3, align 8
  br label %100

50:                                               ; preds = %41
  %51 = load ptr, ptr %4, align 8
  %52 = load ptr, ptr %5, align 8
  %53 = getelementptr inbounds %struct.CK_DATE, ptr %52, i32 0, i32 2
  %54 = getelementptr inbounds [2 x i8], ptr %53, i64 0, i64 0
  %55 = call ptr @ckCharArrayToJCharArray(ptr noundef %51, ptr noundef %54, i64 noundef 2)
  store ptr %55, ptr %11, align 8
  %56 = load ptr, ptr %11, align 8
  %57 = icmp eq ptr %56, null
  br i1 %57, label %58, label %59

58:                                               ; preds = %50
  store ptr null, ptr %3, align 8
  br label %100

59:                                               ; preds = %50
  %60 = load ptr, ptr %4, align 8
  %61 = load ptr, ptr %60, align 8
  %62 = getelementptr inbounds %struct.JNINativeInterface_, ptr %61, i32 0, i32 28
  %63 = load ptr, ptr %62, align 8
  %64 = load ptr, ptr %4, align 8
  %65 = load ptr, ptr %6, align 8
  %66 = load ptr, ptr %7, align 8
  %67 = load ptr, ptr %9, align 8
  %68 = load ptr, ptr %10, align 8
  %69 = load ptr, ptr %11, align 8
  %70 = call ptr (ptr, ptr, ptr, ...) %63(ptr noundef %64, ptr noundef %65, ptr noundef %66, ptr noundef %67, ptr noundef %68, ptr noundef %69)
  store ptr %70, ptr %8, align 8
  %71 = load ptr, ptr %8, align 8
  %72 = icmp eq ptr %71, null
  br i1 %72, label %73, label %74

73:                                               ; preds = %59
  store ptr null, ptr %3, align 8
  br label %100

74:                                               ; preds = %59
  %75 = load ptr, ptr %4, align 8
  %76 = load ptr, ptr %75, align 8
  %77 = getelementptr inbounds %struct.JNINativeInterface_, ptr %76, i32 0, i32 23
  %78 = load ptr, ptr %77, align 8
  %79 = load ptr, ptr %4, align 8
  %80 = load ptr, ptr %6, align 8
  call void %78(ptr noundef %79, ptr noundef %80)
  %81 = load ptr, ptr %4, align 8
  %82 = load ptr, ptr %81, align 8
  %83 = getelementptr inbounds %struct.JNINativeInterface_, ptr %82, i32 0, i32 23
  %84 = load ptr, ptr %83, align 8
  %85 = load ptr, ptr %4, align 8
  %86 = load ptr, ptr %9, align 8
  call void %84(ptr noundef %85, ptr noundef %86)
  %87 = load ptr, ptr %4, align 8
  %88 = load ptr, ptr %87, align 8
  %89 = getelementptr inbounds %struct.JNINativeInterface_, ptr %88, i32 0, i32 23
  %90 = load ptr, ptr %89, align 8
  %91 = load ptr, ptr %4, align 8
  %92 = load ptr, ptr %10, align 8
  call void %90(ptr noundef %91, ptr noundef %92)
  %93 = load ptr, ptr %4, align 8
  %94 = load ptr, ptr %93, align 8
  %95 = getelementptr inbounds %struct.JNINativeInterface_, ptr %94, i32 0, i32 23
  %96 = load ptr, ptr %95, align 8
  %97 = load ptr, ptr %4, align 8
  %98 = load ptr, ptr %11, align 8
  call void %96(ptr noundef %97, ptr noundef %98)
  %99 = load ptr, ptr %8, align 8
  store ptr %99, ptr %3, align 8
  br label %100

100:                                              ; preds = %74, %73, %58, %49, %40, %31, %20
  %101 = load ptr, ptr %3, align 8
  ret ptr %101
}