; Function Attrs: nounwind uwtable
define hidden ptr @ckDatePtrToJDateObject(ptr noundef %0, ptr noundef %1) local_unnamed_addr #0 {
  %3 = load ptr, ptr %0, align 8
  %4 = getelementptr inbounds i8, ptr %3, i64 48
  %5 = load ptr, ptr %4, align 8
  %6 = tail call ptr %5(ptr noundef nonnull %0, ptr noundef nonnull @.str) #8
  %7 = icmp eq ptr %6, null
  br i1 %7, label %44, label %8

8:                                                ; preds = %2
  %9 = load ptr, ptr %0, align 8
  %10 = getelementptr inbounds i8, ptr %9, i64 264
  %11 = load ptr, ptr %10, align 8
  %12 = tail call ptr %11(ptr noundef nonnull %0, ptr noundef nonnull %6, ptr noundef nonnull @.str.1, ptr noundef nonnull @.str.2) #8
  %13 = icmp eq ptr %12, null
  br i1 %13, label %44, label %14

14:                                               ; preds = %8
  %15 = tail call ptr @ckCharArrayToJCharArray(ptr noundef nonnull %0, ptr noundef %1, i64 noundef 4) #8
  %16 = icmp eq ptr %15, null
  br i1 %16, label %44, label %17

17:                                               ; preds = %14
  %18 = getelementptr inbounds i8, ptr %1, i64 4
  %19 = tail call ptr @ckCharArrayToJCharArray(ptr noundef nonnull %0, ptr noundef nonnull %18, i64 noundef 2) #8
  %20 = icmp eq ptr %19, null
  br i1 %20, label %44, label %21

21:                                               ; preds = %17
  %22 = getelementptr inbounds i8, ptr %1, i64 6
  %23 = tail call ptr @ckCharArrayToJCharArray(ptr noundef nonnull %0, ptr noundef nonnull %22, i64 noundef 2) #8
  %24 = icmp eq ptr %23, null
  br i1 %24, label %44, label %25

25:                                               ; preds = %21
  %26 = load ptr, ptr %0, align 8
  %27 = getelementptr inbounds i8, ptr %26, i64 224
  %28 = load ptr, ptr %27, align 8
  %29 = tail call ptr (ptr, ptr, ptr, ...) %28(ptr noundef nonnull %0, ptr noundef nonnull %6, ptr noundef nonnull %12, ptr noundef nonnull %15, ptr noundef nonnull %19, ptr noundef nonnull %23) #8
  %30 = icmp eq ptr %29, null
  br i1 %30, label %44, label %31

31:                                               ; preds = %25
  %32 = load ptr, ptr %0, align 8
  %33 = getelementptr inbounds i8, ptr %32, i64 184
  %34 = load ptr, ptr %33, align 8
  tail call void %34(ptr noundef nonnull %0, ptr noundef nonnull %6) #8
  %35 = load ptr, ptr %0, align 8
  %36 = getelementptr inbounds i8, ptr %35, i64 184
  %37 = load ptr, ptr %36, align 8
  tail call void %37(ptr noundef nonnull %0, ptr noundef nonnull %15) #8
  %38 = load ptr, ptr %0, align 8
  %39 = getelementptr inbounds i8, ptr %38, i64 184
  %40 = load ptr, ptr %39, align 8
  tail call void %40(ptr noundef nonnull %0, ptr noundef nonnull %19) #8
  %41 = load ptr, ptr %0, align 8
  %42 = getelementptr inbounds i8, ptr %41, i64 184
  %43 = load ptr, ptr %42, align 8
  tail call void %43(ptr noundef nonnull %0, ptr noundef nonnull %23) #8
  br label %44

44:                                               ; preds = %25, %21, %17, %14, %8, %2, %31
  %.0 = phi ptr [ %29, %31 ], [ null, %2 ], [ null, %8 ], [ null, %14 ], [ null, %17 ], [ null, %21 ], [ null, %25 ]
  ret ptr %.0
}